target datalayout = "e-m:e-p270:32:32-p271:32:32-p272:64:64-i64:64-i128:128-f80:128-n8:16:32:64-S128"
target triple = "x86_64-pc-linux-gnu"

%struct.lua_TValue = type { %union.Value, [1 x i32], i32 }
%union.Value = type { ptr }
%struct.TString = type { i8, i8, i8, i16, ptr, i32, i32, [1 x i8] }

; Function Attrs: mustprogress nounwind uwtable
define internal noundef i32 @_ZL10luauF_byteP9lua_StateP10lua_TValueS2_iS2_i(ptr noundef %0, ptr noundef %1, ptr noundef %2, i32 noundef %3, ptr noundef %4, i32 noundef %5) #0 {
  %7 = alloca i32, align 4
  %8 = alloca ptr, align 8
  %9 = alloca ptr, align 8
  %10 = alloca ptr, align 8
  %11 = alloca i32, align 4
  %12 = alloca ptr, align 8
  %13 = alloca i32, align 4
  %14 = alloca ptr, align 8
  %15 = alloca i32, align 4
  %16 = alloca i32, align 4
  %17 = alloca i32, align 4
  %18 = alloca ptr, align 8
  %19 = alloca i32, align 4
  %20 = alloca ptr, align 8
  %21 = alloca i32, align 4
  store ptr %0, ptr %8, align 8, !tbaa !4
  store ptr %1, ptr %9, align 8, !tbaa !9
  store ptr %2, ptr %10, align 8, !tbaa !9
  store i32 %3, ptr %11, align 4, !tbaa !11
  store ptr %4, ptr %12, align 8, !tbaa !9
  store i32 %5, ptr %13, align 4, !tbaa !11
  %22 = load i32, ptr %13, align 4, !tbaa !11
  %23 = icmp sge i32 %22, 2
  br i1 %23, label %24, label %129

24:                                               ; preds = %6
  %25 = load ptr, ptr %10, align 8, !tbaa !9
  %26 = getelementptr inbounds nuw %struct.lua_TValue, ptr %25, i32 0, i32 2
  %27 = load i32, ptr %26, align 4, !tbaa !13
  %28 = icmp eq i32 %27, 5
  br i1 %28, label %29, label %129

29:                                               ; preds = %24
  %30 = load ptr, ptr %12, align 8, !tbaa !9
  %31 = getelementptr inbounds nuw %struct.lua_TValue, ptr %30, i32 0, i32 2
  %32 = load i32, ptr %31, align 4, !tbaa !13
  %33 = icmp eq i32 %32, 3
  br i1 %33, label %34, label %129

34:                                               ; preds = %29
  call void @llvm.lifetime.start.p0(i64 8, ptr %14) #17
  %35 = load ptr, ptr %10, align 8, !tbaa !9
  %36 = getelementptr inbounds nuw %struct.lua_TValue, ptr %35, i32 0, i32 0
  %37 = load ptr, ptr %36, align 8, !tbaa !15
  store ptr %37, ptr %14, align 8, !tbaa !37
  call void @llvm.lifetime.start.p0(i64 4, ptr %15) #17
  %38 = load ptr, ptr %12, align 8, !tbaa !9
  %39 = getelementptr inbounds nuw %struct.lua_TValue, ptr %38, i32 0, i32 0
  %40 = load double, ptr %39, align 8, !tbaa !15
  %41 = fptosi double %40 to i32
  store i32 %41, ptr %15, align 4, !tbaa !11
  call void @llvm.lifetime.start.p0(i64 4, ptr %16) #17
  %42 = load i32, ptr %13, align 4, !tbaa !11
  %43 = icmp sge i32 %42, 3
  br i1 %43, label %44, label %59

44:                                               ; preds = %34
  %45 = load ptr, ptr %12, align 8, !tbaa !9
  %46 = getelementptr inbounds %struct.lua_TValue, ptr %45, i64 1
  %47 = getelementptr inbounds nuw %struct.lua_TValue, ptr %46, i32 0, i32 2
  %48 = load i32, ptr %47, align 4, !tbaa !13
  %49 = icmp eq i32 %48, 3
  br i1 %49, label %50, label %56

50:                                               ; preds = %44
  %51 = load ptr, ptr %12, align 8, !tbaa !9
  %52 = getelementptr inbounds %struct.lua_TValue, ptr %51, i64 1
  %53 = getelementptr inbounds nuw %struct.lua_TValue, ptr %52, i32 0, i32 0
  %54 = load double, ptr %53, align 8, !tbaa !15
  %55 = fptosi double %54 to i32
  br label %57

56:                                               ; preds = %44
  br label %57

57:                                               ; preds = %56, %50
  %58 = phi i32 [ %55, %50 ], [ 0, %56 ]
  br label %61

59:                                               ; preds = %34
  %60 = load i32, ptr %15, align 4, !tbaa !11
  br label %61

61:                                               ; preds = %59, %57
  %62 = phi i32 [ %58, %57 ], [ %60, %59 ]
  store i32 %62, ptr %16, align 4, !tbaa !11
  %63 = load i32, ptr %15, align 4, !tbaa !11
  %64 = icmp sge i32 %63, 1
  br i1 %64, label %65, label %125

65:                                               ; preds = %61
  %66 = load i32, ptr %16, align 4, !tbaa !11
  %67 = load i32, ptr %15, align 4, !tbaa !11
  %68 = icmp sge i32 %66, %67
  br i1 %68, label %69, label %125

69:                                               ; preds = %65
  %70 = load i32, ptr %16, align 4, !tbaa !11
  %71 = load ptr, ptr %14, align 8, !tbaa !37
  %72 = getelementptr inbounds nuw %struct.TString, ptr %71, i32 0, i32 6
  %73 = load i32, ptr %72, align 4, !tbaa !38
  %74 = icmp sle i32 %70, %73
  br i1 %74, label %75, label %125

75:                                               ; preds = %69
  call void @llvm.lifetime.start.p0(i64 4, ptr %17) #17
  %76 = load i32, ptr %16, align 4, !tbaa !11
  %77 = load i32, ptr %15, align 4, !tbaa !11
  %78 = sub nsw i32 %76, %77
  %79 = add nsw i32 %78, 1
  store i32 %79, ptr %17, align 4, !tbaa !11
  call void @llvm.lifetime.start.p0(i64 8, ptr %18) #17
  %80 = load ptr, ptr %14, align 8, !tbaa !37
  %81 = getelementptr inbounds nuw %struct.TString, ptr %80, i32 0, i32 7
  %82 = getelementptr inbounds [1 x i8], ptr %81, i64 0, i64 0
  store ptr %82, ptr %18, align 8, !tbaa !40
  %83 = load i32, ptr %17, align 4, !tbaa !11
  %84 = load i32, ptr %11, align 4, !tbaa !11
  %85 = icmp slt i32 %84, 0
  br i1 %85, label %86, label %87

86:                                               ; preds = %75
  br label %89

87:                                               ; preds = %75
  %88 = load i32, ptr %11, align 4, !tbaa !11
  br label %89

89:                                               ; preds = %87, %86
  %90 = phi i32 [ 1, %86 ], [ %88, %87 ]
  %91 = icmp eq i32 %83, %90
  br i1 %91, label %92, label %121

92:                                               ; preds = %89
  call void @llvm.lifetime.start.p0(i64 4, ptr %19) #17
  store i32 0, ptr %19, align 4, !tbaa !11
  br label %93

93:                                               ; preds = %116, %92
  %94 = load i32, ptr %19, align 4, !tbaa !11
  %95 = load i32, ptr %17, align 4, !tbaa !11
  %96 = icmp slt i32 %94, %95
  br i1 %96, label %98, label %97

97:                                               ; preds = %93
  call void @llvm.lifetime.end.p0(i64 4, ptr %19) #17
  br label %119

98:                                               ; preds = %93
  call void @llvm.lifetime.start.p0(i64 8, ptr %20) #17
  %99 = load ptr, ptr %9, align 8, !tbaa !9
  %100 = load i32, ptr %19, align 4, !tbaa !11
  %101 = sext i32 %100 to i64
  %102 = getelementptr inbounds %struct.lua_TValue, ptr %99, i64 %101
  store ptr %102, ptr %20, align 8, !tbaa !9
  %103 = load ptr, ptr %18, align 8, !tbaa !40
  %104 = load i32, ptr %15, align 4, !tbaa !11
  %105 = load i32, ptr %19, align 4, !tbaa !11
  %106 = add nsw i32 %104, %105
  %107 = sub nsw i32 %106, 1
  %108 = sext i32 %107 to i64
  %109 = getelementptr inbounds i8, ptr %103, i64 %108
  %110 = load i8, ptr %109, align 1, !tbaa !15
  %111 = uitofp i8 %110 to double
  %112 = load ptr, ptr %20, align 8, !tbaa !9
  %113 = getelementptr inbounds nuw %struct.lua_TValue, ptr %112, i32 0, i32 0
  store double %111, ptr %113, align 8, !tbaa !15
  %114 = load ptr, ptr %20, align 8, !tbaa !9
  %115 = getelementptr inbounds nuw %struct.lua_TValue, ptr %114, i32 0, i32 2
  store i32 3, ptr %115, align 4, !tbaa !13
  call void @llvm.lifetime.end.p0(i64 8, ptr %20) #17
  br label %116

116:                                              ; preds = %98
  %117 = load i32, ptr %19, align 4, !tbaa !11
  %118 = add nsw i32 %117, 1
  store i32 %118, ptr %19, align 4, !tbaa !11
  br label %93, !llvm.loop !42

119:                                              ; preds = %97
  %120 = load i32, ptr %17, align 4, !tbaa !11
  store i32 %120, ptr %7, align 4
  store i32 1, ptr %21, align 4
  br label %122

121:                                              ; preds = %89
  store i32 0, ptr %21, align 4
  br label %122

122:                                              ; preds = %121, %119
  call void @llvm.lifetime.end.p0(i64 8, ptr %18) #17
  call void @llvm.lifetime.end.p0(i64 4, ptr %17) #17
  %123 = load i32, ptr %21, align 4
  switch i32 %123, label %126 [
    i32 0, label %124
  ]

124:                                              ; preds = %122
  br label %125

125:                                              ; preds = %124, %69, %65, %61
  store i32 0, ptr %21, align 4
  br label %126

126:                                              ; preds = %125, %122
  call void @llvm.lifetime.end.p0(i64 4, ptr %16) #17
  call void @llvm.lifetime.end.p0(i64 4, ptr %15) #17
  call void @llvm.lifetime.end.p0(i64 8, ptr %14) #17
  %127 = load i32, ptr %21, align 4
  switch i32 %127, label %132 [
    i32 0, label %128
    i32 1, label %130
  ]

128:                                              ; preds = %126
  br label %129

129:                                              ; preds = %128, %29, %24, %6
  store i32 -1, ptr %7, align 4
  br label %130

130:                                              ; preds = %129, %126
  %131 = load i32, ptr %7, align 4
  ret i32 %131

132:                                              ; preds = %126
  unreachable
}