; Function Attrs: mustprogress nofree norecurse nosync nounwind memory(read, argmem: readwrite, inaccessiblemem: none) uwtable
define internal noundef range(i32 -1, -2147483648) i32 @_ZL10luauF_byteP9lua_StateP10lua_TValueS2_iS2_i(ptr readnone captures(none) %0, ptr noundef writeonly captures(none) %1, ptr noundef readonly captures(none) %2, i32 noundef %3, ptr noundef readonly captures(none) %4, i32 noundef %5) #7 {
  %7 = icmp sgt i32 %5, 1
  br i1 %7, label %8, label %.critedge

8:                                                ; preds = %6
  %9 = getelementptr inbounds nuw i8, ptr %2, i64 12
  %10 = load i32, ptr %9, align 4, !tbaa !4
  %11 = icmp eq i32 %10, 5
  br i1 %11, label %12, label %.critedge

12:                                               ; preds = %8
  %13 = getelementptr inbounds nuw i8, ptr %4, i64 12
  %14 = load i32, ptr %13, align 4, !tbaa !4
  %15 = icmp eq i32 %14, 3
  br i1 %15, label %16, label %.critedge

16:                                               ; preds = %12
  %17 = load ptr, ptr %2, align 8, !tbaa !9
  %18 = load double, ptr %4, align 8, !tbaa !9
  %19 = fptosi double %18 to i32
  %.not = icmp eq i32 %5, 2
  br i1 %.not, label %28, label %20

20:                                               ; preds = %16
  %21 = getelementptr inbounds nuw i8, ptr %4, i64 28
  %22 = load i32, ptr %21, align 4, !tbaa !4
  %23 = icmp eq i32 %22, 3
  br i1 %23, label %24, label %28

24:                                               ; preds = %20
  %25 = getelementptr inbounds nuw i8, ptr %4, i64 16
  %26 = load double, ptr %25, align 8, !tbaa !9
  %27 = fptosi double %26 to i32
  br label %28

28:                                               ; preds = %16, %24, %20
  %29 = phi i32 [ %27, %24 ], [ 0, %20 ], [ %19, %16 ]
  %30 = icmp slt i32 %19, 1
  %.not40 = icmp slt i32 %29, %19
  %or.cond = select i1 %30, i1 true, i1 %.not40
  br i1 %or.cond, label %.critedge, label %31

31:                                               ; preds = %28
  %32 = getelementptr inbounds nuw i8, ptr %17, i64 20
  %33 = load i32, ptr %32, align 4, !tbaa !33
  %.not41 = icmp sgt i32 %29, %33
  br i1 %.not41, label %.critedge, label %34

34:                                               ; preds = %31
  %35 = sub nsw i32 %29, %19
  %36 = add nsw i32 %35, 1
  %37 = icmp slt i32 %3, 0
  %38 = select i1 %37, i32 1, i32 %3
  %.not43 = icmp eq i32 %36, %38
  br i1 %.not43, label %.lr.ph.preheader, label %.critedge

.lr.ph.preheader:                                 ; preds = %34
  %invariant.gep = getelementptr i8, ptr %17, i64 23
  %39 = zext nneg i32 %19 to i64
  %wide.trip.count = zext nneg i32 %36 to i64
  %invariant.gep50 = getelementptr i8, ptr %invariant.gep, i64 %39
  br label %.lr.ph

.lr.ph:                                           ; preds = %.lr.ph.preheader, %.lr.ph
  %indvars.iv = phi i64 [ 0, %.lr.ph.preheader ], [ %indvars.iv.next, %.lr.ph ]
  %40 = getelementptr inbounds nuw %struct.lua_TValue, ptr %1, i64 %indvars.iv
  %gep51 = getelementptr i8, ptr %invariant.gep50, i64 %indvars.iv
  %41 = load i8, ptr %gep51, align 1, !tbaa !9
  %42 = uitofp i8 %41 to double
  store double %42, ptr %40, align 8, !tbaa !9
  %43 = getelementptr inbounds nuw i8, ptr %40, i64 12
  store i32 3, ptr %43, align 4, !tbaa !4
  %indvars.iv.next = add nuw nsw i64 %indvars.iv, 1
  %exitcond.not = icmp eq i64 %indvars.iv.next, %wide.trip.count
  br i1 %exitcond.not, label %.critedge, label %.lr.ph, !llvm.loop !35

.critedge:                                        ; preds = %.lr.ph, %6, %8, %12, %31, %28, %34
  %.3 = phi i32 [ -1, %34 ], [ -1, %28 ], [ -1, %31 ], [ -1, %12 ], [ -1, %8 ], [ -1, %6 ], [ %36, %.lr.ph ]
  ret i32 %.3
}